target datalayout = "e-m:e-p270:32:32-p271:32:32-p272:64:64-i64:64-i128:128-f80:128-n8:16:32:64-S128"
target triple = "x86_64-pc-linux-gnu"

%struct._GLFWlibrary = type { i32, %struct.GLFWallocator, %struct._GLFWplatform, %struct.anon.7, ptr, ptr, ptr, ptr, i32, i32, [16 x %struct._GLFWjoystick], ptr, i32, %struct._GLFWtls, %struct._GLFWtls, %struct._GLFWmutex, %struct.anon.16, %struct.anon.17, %struct.anon.18, %struct.anon.19, %struct.anon.20, %struct._GLFWlibraryWayland, %struct._GLFWlibraryX11, %struct._GLFWlibraryNull, %struct._GLFWlibraryGLX, %struct._GLFWlibraryLinux }
%struct.GLFWallocator = type { ptr, ptr, ptr, ptr }
%struct._GLFWplatform = type { i32, ptr, ptr, ptr, ptr, ptr, ptr, ptr, ptr, ptr, ptr, ptr, ptr, ptr, ptr, ptr, ptr, ptr, ptr, ptr, ptr, ptr, ptr, ptr, ptr, ptr, ptr, ptr, ptr, ptr, ptr, ptr, ptr, ptr, ptr, ptr, ptr, ptr, ptr, ptr, ptr, ptr, ptr, ptr, ptr, ptr, ptr, ptr, ptr, ptr, ptr, ptr, ptr, ptr, ptr, ptr, ptr, ptr, ptr, ptr, ptr, ptr, ptr, ptr, ptr, ptr, ptr, ptr, ptr, ptr, ptr, ptr }
%struct.anon.7 = type { %struct._GLFWinitconfig, %struct._GLFWfbconfig, %struct._GLFWwndconfig, %struct._GLFWctxconfig, i32 }
%struct._GLFWinitconfig = type { i32, i32, i32, ptr, %struct.anon.8, %struct.anon.9, %struct.anon.10 }
%struct.anon.8 = type { i32, i32 }
%struct.anon.9 = type { i32 }
%struct.anon.10 = type { i32 }
%struct._GLFWfbconfig = type { i32, i32, i32, i32, i32, i32, i32, i32, i32, i32, i32, i32, i32, i32, i32, i32, i64 }
%struct._GLFWwndconfig = type { i32, i32, i32, i32, ptr, i32, i32, i32, i32, i32, i32, i32, i32, i32, i32, i32, i32, %struct.anon.11, %struct.anon.12, %struct.anon.13, %struct.anon.14 }
%struct.anon.11 = type { [256 x i8] }
%struct.anon.12 = type { [256 x i8], [256 x i8] }
%struct.anon.13 = type { i32, i32 }
%struct.anon.14 = type { [256 x i8] }
%struct._GLFWctxconfig = type { i32, i32, i32, i32, i32, i32, i32, i32, i32, i32, ptr, %struct.anon.15 }
%struct.anon.15 = type { i32 }
%struct._GLFWjoystick = type { i32, i32, ptr, i32, ptr, i32, ptr, i32, [128 x i8], ptr, [33 x i8], ptr, %struct._GLFWjoystickLinux }
%struct._GLFWjoystickLinux = type { i32, [4096 x i8], [512 x i32], [64 x i32], [64 x %struct.input_absinfo], [4 x [2 x i32]] }
%struct.input_absinfo = type { i32, i32, i32, i32, i32, i32 }
%struct._GLFWtls = type { %struct._GLFWtlsPOSIX }
%struct._GLFWtlsPOSIX = type { i32, i32 }
%struct._GLFWmutex = type { %struct._GLFWmutexPOSIX }
%struct._GLFWmutexPOSIX = type { i32, %union.pthread_mutex_t }
%union.pthread_mutex_t = type { %struct.__pthread_mutex_s }
%struct.__pthread_mutex_s = type { i32, i32, i32, i32, i32, i16, i16, %struct.__pthread_internal_list }
%struct.__pthread_internal_list = type { ptr, ptr }
%struct.anon.16 = type { i64, %struct._GLFWtimerPOSIX }
%struct._GLFWtimerPOSIX = type { i32, i64 }
%struct.anon.17 = type { i32, ptr, i32, i32, i32, i32, i32, i32, i32, i32, i32, i32, i32, i32, i32, i32, i32, i32, i32, i32, ptr, ptr, ptr, ptr, ptr, ptr, ptr, ptr, ptr, ptr, ptr, ptr, ptr, ptr, ptr, ptr, ptr, ptr, ptr }
%struct.anon.18 = type { ptr, ptr, ptr, ptr, ptr, ptr, ptr, ptr }
%struct.anon.19 = type { i32, ptr, [2 x ptr], ptr, i32, i32, i32, i32, i32, i32, i32 }
%struct.anon.20 = type { ptr, ptr }
%struct._GLFWlibraryWayland = type { ptr, ptr, ptr, ptr, ptr, ptr, ptr, ptr, ptr, ptr, ptr, ptr, ptr, ptr, ptr, ptr, ptr, ptr, ptr, i32, ptr, ptr, ptr, ptr, i32, ptr, ptr, ptr, ptr, ptr, i32, i32, i32, i32, i32, i32, i32, ptr, [256 x i16], [349 x i16], [349 x [5 x i8]], %struct.anon.21, ptr, ptr, %struct.anon.22, %struct.anon.23, %struct.anon.24, %struct.anon.25 }
%struct.anon.21 = type { ptr, ptr, ptr, ptr, ptr, i32, i32, i32, i32, i32, i32, i32, ptr, ptr, ptr, ptr, ptr, ptr, ptr, ptr, ptr, ptr, ptr, ptr, ptr, ptr, ptr, ptr, ptr, ptr, ptr, ptr }
%struct.anon.22 = type { ptr, ptr, ptr, ptr, ptr, ptr, ptr, ptr, ptr, ptr, ptr, ptr, ptr, ptr, ptr, ptr, ptr, ptr, ptr, ptr }
%struct.anon.23 = type { ptr, ptr, ptr, ptr, ptr }
%struct.anon.24 = type { ptr, ptr, ptr, ptr }
%struct.anon.25 = type { ptr, ptr, ptr, i32, ptr, ptr, ptr, ptr, ptr, ptr, ptr, ptr, ptr, ptr, ptr, ptr, ptr, ptr, ptr, ptr, ptr, ptr, ptr, ptr, ptr, ptr, ptr, ptr, ptr }
%struct._GLFWlibraryX11 = type { ptr, i32, i64, float, float, i64, i64, i32, ptr, ptr, i32, ptr, ptr, [349 x [5 x i8]], [256 x i16], [349 x i16], double, double, ptr, [2 x i32], i64, i64, i64, i64, i64, i64, i64, i64, i64, i64, i64, i64, i64, i64, i64, i64, i64, i64, i64, i64, i64, i64, i64, i64, i64, i64, i64, i64, i64, i64, i64, i64, i64, i64, i64, i64, i64, i64, i64, i64, i64, i64, i64, i64, i64, i64, i64, i64, i64, i64, %struct.anon.26, %struct.anon.27, %struct.anon.28, %struct.anon.29, %struct.anon.30, %struct.anon.31, %struct.anon.32, %struct.anon.33, %struct.anon.34, %struct.anon.35, %struct.anon.36, %struct.anon.37, %struct.anon.38 }
%struct.anon.26 = type { ptr, i32, ptr, ptr, ptr, ptr, ptr, ptr, ptr, ptr, ptr, ptr, ptr, ptr, ptr, ptr, ptr, ptr, ptr, ptr, ptr, ptr, ptr, ptr, ptr, ptr, ptr, ptr, ptr, ptr, ptr, ptr, ptr, ptr, ptr, ptr, ptr, ptr, ptr, ptr, ptr, ptr, ptr, ptr, ptr, ptr, ptr, ptr, ptr, ptr, ptr, ptr, ptr, ptr, ptr, ptr, ptr, ptr, ptr, ptr, ptr, ptr, ptr, ptr, ptr, ptr, ptr, ptr, ptr, ptr, ptr, ptr, ptr, ptr, ptr, ptr, ptr, ptr, ptr, ptr, ptr, ptr, ptr, ptr, ptr, ptr, ptr, ptr }
%struct.anon.27 = type { ptr, ptr, ptr, ptr }
%struct.anon.28 = type { i32, ptr, i32, i32, i32, i32, i32, i32, ptr, ptr, ptr, ptr, ptr, ptr, ptr, ptr, ptr, ptr, ptr, ptr, ptr, ptr, ptr, ptr, ptr }
%struct.anon.29 = type { i32, i32, i32, i32, i32, i32, i32, i32, ptr, ptr, ptr, ptr, ptr, ptr, ptr, ptr, ptr }
%struct.anon.30 = type { i32, i32, i32, i32, i32 }
%struct.anon.31 = type { i32, i64, i64 }
%struct.anon.32 = type { ptr, ptr, ptr, ptr, ptr, ptr, ptr }
%struct.anon.33 = type { i32, ptr, i32, i32, ptr, ptr, ptr }
%struct.anon.34 = type { ptr, ptr }
%struct.anon.35 = type { i32, ptr, i32, i32, ptr, ptr, ptr, ptr }
%struct.anon.36 = type { i32, ptr, i32, i32, i32, i32, i32, ptr, ptr }
%struct.anon.37 = type { i32, ptr, i32, i32, i32, i32, ptr, ptr, ptr }
%struct.anon.38 = type { i32, ptr, i32, i32, i32, i32, ptr, ptr, ptr, ptr }
%struct._GLFWlibraryNull = type { i32, i32, ptr, ptr, [121 x i16], [349 x i8] }
%struct._GLFWlibraryGLX = type { i32, i32, i32, i32, ptr, ptr, ptr, ptr, ptr, ptr, ptr, ptr, ptr, ptr, ptr, ptr, ptr, ptr, ptr, ptr, ptr, ptr, ptr, ptr, i32, i32, i32, i32, i32, i32, i32, i32, i32, i32, i32, i32 }
%struct._GLFWlibraryLinux = type { i32, i32, %struct.re_pattern_buffer, i32, i32 }
%struct.re_pattern_buffer = type { ptr, i64, i64, i64, ptr, ptr, i64, i8 }
%struct._GLFWmapping = type { [128 x i8], [33 x i8], [15 x %struct._GLFWmapelement], [6 x %struct._GLFWmapelement] }
%struct._GLFWmapelement = type { i8, i8, i8, i8 }

@_glfw = external global %struct._GLFWlibrary, align 8
@.str.404 = private unnamed_addr constant [3 x i8] c"\0D\0A\00", align 1

; Function Attrs: nounwind uwtable
define internal ptr @findMapping(ptr noundef %0) #0 {
  %2 = alloca ptr, align 8
  %3 = alloca ptr, align 8
  %4 = alloca i32, align 4
  %5 = alloca i32, align 4
  store ptr %0, ptr %3, align 8, !tbaa !159
  call void @llvm.lifetime.start.p0(i64 4, ptr %4) #8
  store i32 0, ptr %4, align 4, !tbaa !8
  br label %6

6:                                                ; preds = %26, %1
  %7 = load i32, ptr %4, align 4, !tbaa !8
  %8 = load i32, ptr getelementptr inbounds nuw (%struct._GLFWlibrary, ptr @_glfw, i32 0, i32 12), align 8, !tbaa !158
  %9 = icmp slt i32 %7, %8
  br i1 %9, label %10, label %29

10:                                               ; preds = %6
  %11 = load ptr, ptr getelementptr inbounds nuw (%struct._GLFWlibrary, ptr @_glfw, i32 0, i32 11), align 8, !tbaa !157
  %12 = load i32, ptr %4, align 4, !tbaa !8
  %13 = sext i32 %12 to i64
  %14 = getelementptr inbounds %struct._GLFWmapping, ptr %11, i64 %13
  %15 = getelementptr inbounds nuw %struct._GLFWmapping, ptr %14, i32 0, i32 1
  %16 = getelementptr inbounds [33 x i8], ptr %15, i64 0, i64 0
  %17 = load ptr, ptr %3, align 8, !tbaa !159
  %18 = call i32 @strcmp(ptr noundef %16, ptr noundef %17) #9
  %19 = icmp eq i32 %18, 0
  br i1 %19, label %20, label %25

20:                                               ; preds = %10
  %21 = load ptr, ptr getelementptr inbounds nuw (%struct._GLFWlibrary, ptr @_glfw, i32 0, i32 11), align 8, !tbaa !157
  %22 = load i32, ptr %4, align 4, !tbaa !8
  %23 = sext i32 %22 to i64
  %24 = getelementptr inbounds %struct._GLFWmapping, ptr %21, i64 %23
  store ptr %24, ptr %2, align 8
  store i32 1, ptr %5, align 4
  br label %30

25:                                               ; preds = %10
  br label %26

26:                                               ; preds = %25
  %27 = load i32, ptr %4, align 4, !tbaa !8
  %28 = add nsw i32 %27, 1
  store i32 %28, ptr %4, align 4, !tbaa !8
  br label %6

29:                                               ; preds = %6
  store ptr null, ptr %2, align 8
  store i32 1, ptr %5, align 4
  br label %30

30:                                               ; preds = %29, %20
  call void @llvm.lifetime.end.p0(i64 4, ptr %4) #8
  %31 = load ptr, ptr %2, align 8
  ret ptr %31
}

; Function Attrs: nounwind uwtable
define i32 @glfwUpdateGamepadMappings(ptr noundef %0) #0 {
  %2 = alloca i32, align 4
  %3 = alloca ptr, align 8
  %4 = alloca i32, align 4
  %5 = alloca ptr, align 8
  %6 = alloca i32, align 4
  %7 = alloca [1024 x i8], align 16
  %8 = alloca i64, align 8
  %9 = alloca %struct._GLFWmapping, align 1
  %10 = alloca ptr, align 8
  %11 = alloca ptr, align 8
  store ptr %0, ptr %3, align 8, !tbaa !159
  call void @llvm.lifetime.start.p0(i64 4, ptr %4) #8
  call void @llvm.lifetime.start.p0(i64 8, ptr %5) #8
  %12 = load ptr, ptr %3, align 8, !tbaa !159
  store ptr %12, ptr %5, align 8, !tbaa !159
  %13 = load i32, ptr @_glfw, align 8, !tbaa !181
  %14 = icmp ne i32 %13, 0
  br i1 %14, label %16, label %15

15:                                               ; preds = %1
  call void (i32, ptr, ...) @_glfwInputError(i32 noundef 65537, ptr noundef null)
  store i32 0, ptr %2, align 4
  store i32 1, ptr %6, align 4
  br label %124

16:                                               ; preds = %1
  br label %17

17:                                               ; preds = %101, %16
  %18 = load ptr, ptr %5, align 8, !tbaa !159
  %19 = load i8, ptr %18, align 1, !tbaa !10
  %20 = icmp ne i8 %19, 0
  br i1 %20, label %21, label %102

21:                                               ; preds = %17
  %22 = load ptr, ptr %5, align 8, !tbaa !159
  %23 = load i8, ptr %22, align 1, !tbaa !10
  %24 = sext i8 %23 to i32
  %25 = icmp sge i32 %24, 48
  br i1 %25, label %26, label %31

26:                                               ; preds = %21
  %27 = load ptr, ptr %5, align 8, !tbaa !159
  %28 = load i8, ptr %27, align 1, !tbaa !10
  %29 = sext i8 %28 to i32
  %30 = icmp sle i32 %29, 57
  br i1 %30, label %51, label %31

31:                                               ; preds = %26, %21
  %32 = load ptr, ptr %5, align 8, !tbaa !159
  %33 = load i8, ptr %32, align 1, !tbaa !10
  %34 = sext i8 %33 to i32
  %35 = icmp sge i32 %34, 97
  br i1 %35, label %36, label %41

36:                                               ; preds = %31
  %37 = load ptr, ptr %5, align 8, !tbaa !159
  %38 = load i8, ptr %37, align 1, !tbaa !10
  %39 = sext i8 %38 to i32
  %40 = icmp sle i32 %39, 102
  br i1 %40, label %51, label %41

41:                                               ; preds = %36, %31
  %42 = load ptr, ptr %5, align 8, !tbaa !159
  %43 = load i8, ptr %42, align 1, !tbaa !10
  %44 = sext i8 %43 to i32
  %45 = icmp sge i32 %44, 65
  br i1 %45, label %46, label %92

46:                                               ; preds = %41
  %47 = load ptr, ptr %5, align 8, !tbaa !159
  %48 = load i8, ptr %47, align 1, !tbaa !10
  %49 = sext i8 %48 to i32
  %50 = icmp sle i32 %49, 70
  br i1 %50, label %51, label %92

51:                                               ; preds = %46, %36, %26
  call void @llvm.lifetime.start.p0(i64 1024, ptr %7) #8
  call void @llvm.lifetime.start.p0(i64 8, ptr %8) #8
  %52 = load ptr, ptr %5, align 8, !tbaa !159
  %53 = call i64 @strcspn(ptr noundef %52, ptr noundef @.str.404) #9
  store i64 %53, ptr %8, align 8, !tbaa !156
  %54 = load i64, ptr %8, align 8, !tbaa !156
  %55 = icmp ult i64 %54, 1024
  br i1 %55, label %56, label %88

56:                                               ; preds = %51
  call void @llvm.lifetime.start.p0(i64 245, ptr %9) #8
  call void @llvm.memset.p0.i64(ptr align 1 %9, i8 0, i64 245, i1 false)
  %57 = getelementptr inbounds [1024 x i8], ptr %7, i64 0, i64 0
  %58 = load ptr, ptr %5, align 8, !tbaa !159
  %59 = load i64, ptr %8, align 8, !tbaa !156
  call void @llvm.memcpy.p0.p0.i64(ptr align 16 %57, ptr align 1 %58, i64 %59, i1 false)
  %60 = load i64, ptr %8, align 8, !tbaa !156
  %61 = getelementptr inbounds nuw [1024 x i8], ptr %7, i64 0, i64 %60
  store i8 0, ptr %61, align 1, !tbaa !10
  %62 = getelementptr inbounds [1024 x i8], ptr %7, i64 0, i64 0
  %63 = call i32 @parseMapping(ptr noundef %9, ptr noundef %62)
  %64 = icmp ne i32 %63, 0
  br i1 %64, label %65, label %87

65:                                               ; preds = %56
  call void @llvm.lifetime.start.p0(i64 8, ptr %10) #8
  %66 = getelementptr inbounds nuw %struct._GLFWmapping, ptr %9, i32 0, i32 1
  %67 = getelementptr inbounds [33 x i8], ptr %66, i64 0, i64 0
  %68 = call ptr @findMapping(ptr noundef %67)
  store ptr %68, ptr %10, align 8, !tbaa !160
  %69 = load ptr, ptr %10, align 8, !tbaa !160
  %70 = icmp ne ptr %69, null
  br i1 %70, label %71, label %73

71:                                               ; preds = %65
  %72 = load ptr, ptr %10, align 8, !tbaa !160
  call void @llvm.memcpy.p0.p0.i64(ptr align 1 %72, ptr align 1 %9, i64 245, i1 false), !tbaa.struct !225
  br label %86

73:                                               ; preds = %65
  %74 = load i32, ptr getelementptr inbounds nuw (%struct._GLFWlibrary, ptr @_glfw, i32 0, i32 12), align 8, !tbaa !158
  %75 = add nsw i32 %74, 1
  store i32 %75, ptr getelementptr inbounds nuw (%struct._GLFWlibrary, ptr @_glfw, i32 0, i32 12), align 8, !tbaa !158
  %76 = load ptr, ptr getelementptr inbounds nuw (%struct._GLFWlibrary, ptr @_glfw, i32 0, i32 11), align 8, !tbaa !157
  %77 = load i32, ptr getelementptr inbounds nuw (%struct._GLFWlibrary, ptr @_glfw, i32 0, i32 12), align 8, !tbaa !158
  %78 = sext i32 %77 to i64
  %79 = mul i64 245, %78
  %80 = call ptr @_glfw_realloc(ptr noundef %76, i64 noundef %79)
  store ptr %80, ptr getelementptr inbounds nuw (%struct._GLFWlibrary, ptr @_glfw, i32 0, i32 11), align 8, !tbaa !157
  %81 = load ptr, ptr getelementptr inbounds nuw (%struct._GLFWlibrary, ptr @_glfw, i32 0, i32 11), align 8, !tbaa !157
  %82 = load i32, ptr getelementptr inbounds nuw (%struct._GLFWlibrary, ptr @_glfw, i32 0, i32 12), align 8, !tbaa !158
  %83 = sub nsw i32 %82, 1
  %84 = sext i32 %83 to i64
  %85 = getelementptr inbounds %struct._GLFWmapping, ptr %81, i64 %84
  call void @llvm.memcpy.p0.p0.i64(ptr align 1 %85, ptr align 1 %9, i64 245, i1 false), !tbaa.struct !225
  br label %86

86:                                               ; preds = %73, %71
  call void @llvm.lifetime.end.p0(i64 8, ptr %10) #8
  br label %87

87:                                               ; preds = %86, %56
  call void @llvm.lifetime.end.p0(i64 245, ptr %9) #8
  br label %88

88:                                               ; preds = %87, %51
  %89 = load i64, ptr %8, align 8, !tbaa !156
  %90 = load ptr, ptr %5, align 8, !tbaa !159
  %91 = getelementptr inbounds nuw i8, ptr %90, i64 %89
  store ptr %91, ptr %5, align 8, !tbaa !159
  call void @llvm.lifetime.end.p0(i64 8, ptr %8) #8
  call void @llvm.lifetime.end.p0(i64 1024, ptr %7) #8
  br label %101

92:                                               ; preds = %46, %41
  %93 = load ptr, ptr %5, align 8, !tbaa !159
  %94 = call i64 @strcspn(ptr noundef %93, ptr noundef @.str.404) #9
  %95 = load ptr, ptr %5, align 8, !tbaa !159
  %96 = getelementptr inbounds nuw i8, ptr %95, i64 %94
  store ptr %96, ptr %5, align 8, !tbaa !159
  %97 = load ptr, ptr %5, align 8, !tbaa !159
  %98 = call i64 @strspn(ptr noundef %97, ptr noundef @.str.404) #9
  %99 = load ptr, ptr %5, align 8, !tbaa !159
  %100 = getelementptr inbounds nuw i8, ptr %99, i64 %98
  store ptr %100, ptr %5, align 8, !tbaa !159
  br label %101

101:                                              ; preds = %92, %88
  br label %17

102:                                              ; preds = %17
  store i32 0, ptr %4, align 4, !tbaa !8
  br label %103

103:                                              ; preds = %120, %102
  %104 = load i32, ptr %4, align 4, !tbaa !8
  %105 = icmp sle i32 %104, 15
  br i1 %105, label %106, label %123

106:                                              ; preds = %103
  call void @llvm.lifetime.start.p0(i64 8, ptr %11) #8
  %107 = load i32, ptr %4, align 4, !tbaa !8
  %108 = sext i32 %107 to i64
  %109 = getelementptr inbounds %struct._GLFWjoystick, ptr getelementptr inbounds nuw (%struct._GLFWlibrary, ptr @_glfw, i32 0, i32 10), i64 %108
  store ptr %109, ptr %11, align 8, !tbaa !68
  %110 = load ptr, ptr %11, align 8, !tbaa !68
  %111 = getelementptr inbounds nuw %struct._GLFWjoystick, ptr %110, i32 0, i32 1
  %112 = load i32, ptr %111, align 4, !tbaa !70
  %113 = icmp ne i32 %112, 0
  br i1 %113, label %114, label %119

114:                                              ; preds = %106
  %115 = load ptr, ptr %11, align 8, !tbaa !68
  %116 = call ptr @findValidMapping(ptr noundef %115)
  %117 = load ptr, ptr %11, align 8, !tbaa !68
  %118 = getelementptr inbounds nuw %struct._GLFWjoystick, ptr %117, i32 0, i32 11
  store ptr %116, ptr %118, align 8, !tbaa !176
  br label %119

119:                                              ; preds = %114, %106
  call void @llvm.lifetime.end.p0(i64 8, ptr %11) #8
  br label %120

120:                                              ; preds = %119
  %121 = load i32, ptr %4, align 4, !tbaa !8
  %122 = add nsw i32 %121, 1
  store i32 %122, ptr %4, align 4, !tbaa !8
  br label %103

123:                                              ; preds = %103
  store i32 1, ptr %2, align 4
  store i32 1, ptr %6, align 4
  br label %124

124:                                              ; preds = %123, %15
  call void @llvm.lifetime.end.p0(i64 8, ptr %5) #8
  call void @llvm.lifetime.end.p0(i64 4, ptr %4) #8
  %125 = load i32, ptr %2, align 4
  ret i32 %125
}