; Function Attrs: nounwind uwtable
define range(i32 0, 2) i32 @glfwUpdateGamepadMappings(ptr noundef readonly captures(none) %0) local_unnamed_addr #0 {
  %2 = alloca [1024 x i8], align 16
  %3 = alloca %struct._GLFWmapping, align 1
  %4 = load i32, ptr @_glfw, align 8, !tbaa !170
  %.not = icmp eq i32 %4, 0
  br i1 %.not, label %7, label %.preheader46

.preheader46:                                     ; preds = %1
  %5 = load i8, ptr %0, align 1, !tbaa !3
  %.not3548 = icmp eq i8 %5, 0
  br i1 %.not3548, label %.preheader.preheader, label %.lr.ph

.lr.ph:                                           ; preds = %.preheader46
  %6 = getelementptr inbounds nuw i8, ptr %3, i64 128
  br label %8

7:                                                ; preds = %1
  tail call void (i32, ptr, ...) @_glfwInputError(i32 noundef 65537, ptr noundef null) #12
  br label %.loopexit

8:                                                ; preds = %.lr.ph, %42
  %9 = phi i8 [ %5, %.lr.ph ], [ %43, %42 ]
  %.02849 = phi ptr [ %0, %.lr.ph ], [ %.1, %42 ]
  %.fr51 = freeze i8 %9
  %10 = add i8 %.fr51, -48
  %or.cond = icmp ult i8 %10, 10
  br i1 %or.cond, label %11, label %switch.early.test

switch.early.test:                                ; preds = %8
  switch i8 %.fr51, label %37 [
    i8 102, label %11
    i8 101, label %11
    i8 100, label %11
    i8 99, label %11
    i8 98, label %11
    i8 97, label %11
    i8 70, label %11
    i8 69, label %11
    i8 68, label %11
    i8 67, label %11
    i8 66, label %11
    i8 65, label %11
  ]

11:                                               ; preds = %switch.early.test, %switch.early.test, %switch.early.test, %switch.early.test, %switch.early.test, %switch.early.test, %switch.early.test, %switch.early.test, %switch.early.test, %switch.early.test, %switch.early.test, %switch.early.test, %8
  call void @llvm.lifetime.start.p0(i64 1024, ptr nonnull %2) #12
  %12 = call i64 @strcspn(ptr noundef nonnull %.02849, ptr noundef nonnull @.str.404) #13
  %13 = icmp ult i64 %12, 1024
  br i1 %13, label %14, label %35

14:                                               ; preds = %11
  call void @llvm.lifetime.start.p0(i64 245, ptr nonnull %3) #12
  call void @llvm.memset.p0.i64(ptr noundef nonnull align 1 dereferenceable(245) %3, i8 0, i64 245, i1 false)
  call void @llvm.memcpy.p0.p0.i64(ptr nonnull align 16 %2, ptr nonnull align 1 %.02849, i64 %12, i1 false)
  %15 = getelementptr inbounds nuw [1024 x i8], ptr %2, i64 0, i64 %12
  store i8 0, ptr %15, align 1, !tbaa !3
  %16 = call fastcc i32 @parseMapping(ptr noundef nonnull %3, ptr noundef nonnull %2)
  %.not37 = icmp eq i32 %16, 0
  br i1 %.not37, label %34, label %17

17:                                               ; preds = %14
  %18 = load i32, ptr getelementptr inbounds nuw (i8, ptr @_glfw, i64 133400), align 8, !tbaa !150
  %19 = icmp sgt i32 %18, 0
  %.pre = load ptr, ptr getelementptr inbounds nuw (i8, ptr @_glfw, i64 133392), align 8, !tbaa !149
  br i1 %19, label %.lr.ph.i, label %.loopexit45

.lr.ph.i:                                         ; preds = %17
  %wide.trip.count.i = zext nneg i32 %18 to i64
  br label %21

20:                                               ; preds = %21
  %indvars.iv.next.i = add nuw nsw i64 %indvars.iv.i, 1
  %exitcond.not.i = icmp eq i64 %indvars.iv.next.i, %wide.trip.count.i
  br i1 %exitcond.not.i, label %.loopexit45, label %21

21:                                               ; preds = %20, %.lr.ph.i
  %indvars.iv.i = phi i64 [ 0, %.lr.ph.i ], [ %indvars.iv.next.i, %20 ]
  %22 = getelementptr inbounds nuw %struct._GLFWmapping, ptr %.pre, i64 %indvars.iv.i
  %23 = getelementptr inbounds nuw i8, ptr %22, i64 128
  %24 = call i32 @strcmp(ptr noundef nonnull dereferenceable(1) %23, ptr noundef nonnull readonly dereferenceable(1) %6) #13
  %25 = icmp eq i32 %24, 0
  br i1 %25, label %.sink.split, label %20

.loopexit45:                                      ; preds = %20, %17
  %26 = add nsw i32 %18, 1
  store i32 %26, ptr getelementptr inbounds nuw (i8, ptr @_glfw, i64 133400), align 8, !tbaa !150
  %27 = sext i32 %26 to i64
  %28 = mul nsw i64 %27, 245
  %29 = call ptr @_glfw_realloc(ptr noundef %.pre, i64 noundef %28) #12
  store ptr %29, ptr getelementptr inbounds nuw (i8, ptr @_glfw, i64 133392), align 8, !tbaa !149
  %30 = load i32, ptr getelementptr inbounds nuw (i8, ptr @_glfw, i64 133400), align 8, !tbaa !150
  %31 = sext i32 %30 to i64
  %32 = getelementptr %struct._GLFWmapping, ptr %29, i64 %31
  %33 = getelementptr i8, ptr %32, i64 -245
  br label %.sink.split

.sink.split:                                      ; preds = %21, %.loopexit45
  %.lcssa.sink = phi ptr [ %33, %.loopexit45 ], [ %22, %21 ]
  call void @llvm.memcpy.p0.p0.i64(ptr noundef nonnull align 1 dereferenceable(245) %.lcssa.sink, ptr noundef nonnull align 1 dereferenceable(245) %3, i64 245, i1 false)
  br label %34

34:                                               ; preds = %.sink.split, %14
  call void @llvm.lifetime.end.p0(i64 245, ptr nonnull %3) #12
  br label %35

35:                                               ; preds = %34, %11
  %36 = getelementptr inbounds nuw i8, ptr %.02849, i64 %12
  call void @llvm.lifetime.end.p0(i64 1024, ptr nonnull %2) #12
  br label %42

37:                                               ; preds = %switch.early.test
  %38 = call i64 @strcspn(ptr noundef nonnull %.02849, ptr noundef nonnull @.str.404) #13
  %39 = getelementptr inbounds nuw i8, ptr %.02849, i64 %38
  %40 = call i64 @strspn(ptr noundef nonnull %39, ptr noundef nonnull @.str.404) #13
  %41 = getelementptr inbounds nuw i8, ptr %39, i64 %40
  br label %42

42:                                               ; preds = %37, %35
  %.1 = phi ptr [ %36, %35 ], [ %41, %37 ]
  %43 = load i8, ptr %.1, align 1, !tbaa !3
  %.not35 = icmp eq i8 %43, 0
  br i1 %.not35, label %.preheader.preheader, label %8

.preheader.preheader:                             ; preds = %42, %.preheader46
  br label %.preheader

.preheader:                                       ; preds = %.preheader.preheader, %50
  %indvars.iv = phi i64 [ %indvars.iv.next, %50 ], [ 0, %.preheader.preheader ]
  %44 = getelementptr inbounds nuw %struct._GLFWjoystick, ptr getelementptr inbounds nuw (i8, ptr @_glfw, i64 1936), i64 %indvars.iv
  %45 = getelementptr inbounds nuw i8, ptr %44, i64 4
  %46 = load i32, ptr %45, align 4, !tbaa !63
  %.not36 = icmp eq i32 %46, 0
  br i1 %.not36, label %50, label %47

47:                                               ; preds = %.preheader
  %48 = call fastcc ptr @findValidMapping(ptr noundef nonnull %44)
  %49 = getelementptr inbounds nuw i8, ptr %44, i64 232
  store ptr %48, ptr %49, align 8, !tbaa !166
  br label %50

50:                                               ; preds = %47, %.preheader
  %indvars.iv.next = add nuw nsw i64 %indvars.iv, 1
  %exitcond.not = icmp eq i64 %indvars.iv.next, 16
  br i1 %exitcond.not, label %.loopexit, label %.preheader

.loopexit:                                        ; preds = %50, %7
  %.0 = phi i32 [ 0, %7 ], [ 1, %50 ]
  ret i32 %.0
}